target datalayout = "e-m:e-p270:32:32-p271:32:32-p272:64:64-i64:64-i128:128-f80:128-n8:16:32:64-S128"
target triple = "x86_64-pc-linux-gnu"

%struct._lv_global_t = type { i8, i8, %struct.lv_ll_t, ptr, ptr, %struct.lv_ll_t, i8, i32, i32, ptr, %struct.lv_ll_t, ptr, %struct.lv_ll_t, ptr, ptr, i32, ptr, i8, i32, i32, ptr, i32, %struct.lv_timer_state_t, %struct.lv_anim_state_t, %struct.lv_tick_state_t, %struct._lv_draw_buf_handlers_t, %struct._lv_draw_buf_handlers_t, %struct._lv_draw_buf_handlers_t, %struct.lv_ll_t, ptr, ptr, %struct.lv_draw_global_info_t, [4 x %struct.lv_draw_sw_mask_radius_circle_dsc_t], ptr, ptr, ptr, %struct.lv_tlsf_state_t, %struct.lv_ll_t, ptr, ptr, %struct.lv_style_t, i64, ptr, i32, ptr }
%struct.lv_timer_state_t = type { %struct.lv_ll_t, i8, i8, i8, i8, i32, i8, i32, i32, i32, i32, ptr, ptr }
%struct.lv_anim_state_t = type { i8, i8, ptr, %struct.lv_ll_t }
%struct.lv_tick_state_t = type { i32, i8, ptr, ptr }
%struct._lv_draw_buf_handlers_t = type { ptr, ptr, ptr, ptr, ptr, ptr }
%struct.lv_draw_global_info_t = type { ptr, i32, i32, i32, i32, i8 }
%struct.lv_draw_sw_mask_radius_circle_dsc_t = type { ptr, ptr, ptr, ptr, i32, i32, i32 }
%struct.lv_tlsf_state_t = type { ptr, i64, i64, %struct.lv_ll_t }
%struct.lv_ll_t = type { i32, ptr, ptr }
%struct.lv_style_t = type { ptr, i32, i8 }
%struct._lv_draw_task_t = type { ptr, i32, %struct.lv_area_t, %struct.lv_area_t, %struct.lv_area_t, %struct.lv_area_t, ptr, ptr, i32, ptr, i8, i8 }
%struct.lv_area_t = type { i32, i32, i32, i32 }
%struct._lv_layer_t = type { ptr, %struct.lv_area_t, i32, %struct.lv_area_t, %struct.lv_area_t, i8, i32, ptr, ptr, ptr, i8, ptr }

@lv_global = external global %struct._lv_global_t, align 8

; Function Attrs: nounwind uwtable
define internal zeroext i1 @is_independent(ptr noundef %0, ptr noundef %1) #0 {
  %3 = alloca i1, align 1
  %4 = alloca ptr, align 8
  %5 = alloca ptr, align 8
  %6 = alloca ptr, align 8
  %7 = alloca %struct.lv_area_t, align 4
  %8 = alloca i32, align 4
  store ptr %0, ptr %4, align 8, !tbaa !39
  store ptr %1, ptr %5, align 8, !tbaa !42
  call void @llvm.lifetime.start.p0(i64 8, ptr %6) #5
  %9 = load ptr, ptr %4, align 8, !tbaa !39
  %10 = getelementptr inbounds nuw %struct._lv_layer_t, ptr %9, i32 0, i32 7
  %11 = load ptr, ptr %10, align 8, !tbaa !50
  store ptr %11, ptr %6, align 8, !tbaa !42
  br label %12

12:                                               ; preds = %37, %2
  %13 = load ptr, ptr %6, align 8, !tbaa !42
  %14 = icmp ne ptr %13, null
  br i1 %14, label %15, label %19

15:                                               ; preds = %12
  %16 = load ptr, ptr %6, align 8, !tbaa !42
  %17 = load ptr, ptr %5, align 8, !tbaa !42
  %18 = icmp ne ptr %16, %17
  br label %19

19:                                               ; preds = %15, %12
  %20 = phi i1 [ false, %12 ], [ %18, %15 ]
  br i1 %20, label %21, label %41

21:                                               ; preds = %19
  %22 = load ptr, ptr %6, align 8, !tbaa !42
  %23 = getelementptr inbounds nuw %struct._lv_draw_task_t, ptr %22, i32 0, i32 8
  %24 = load volatile i32, ptr %23, align 8, !tbaa !49
  %25 = icmp ne i32 %24, 3
  br i1 %25, label %26, label %37

26:                                               ; preds = %21
  call void @llvm.lifetime.start.p0(i64 16, ptr %7) #5
  %27 = load ptr, ptr %6, align 8, !tbaa !42
  %28 = getelementptr inbounds nuw %struct._lv_draw_task_t, ptr %27, i32 0, i32 3
  %29 = load ptr, ptr %5, align 8, !tbaa !42
  %30 = getelementptr inbounds nuw %struct._lv_draw_task_t, ptr %29, i32 0, i32 3
  %31 = call zeroext i1 @lv_area_intersect(ptr noundef %7, ptr noundef %28, ptr noundef %30)
  br i1 %31, label %32, label %33

32:                                               ; preds = %26
  store i1 false, ptr %3, align 1
  store i32 1, ptr %8, align 4
  br label %34

33:                                               ; preds = %26
  store i32 0, ptr %8, align 4
  br label %34

34:                                               ; preds = %33, %32
  call void @llvm.lifetime.end.p0(i64 16, ptr %7) #5
  %35 = load i32, ptr %8, align 4
  switch i32 %35, label %42 [
    i32 0, label %36
  ]

36:                                               ; preds = %34
  br label %37

37:                                               ; preds = %36, %21
  %38 = load ptr, ptr %6, align 8, !tbaa !42
  %39 = getelementptr inbounds nuw %struct._lv_draw_task_t, ptr %38, i32 0, i32 0
  %40 = load ptr, ptr %39, align 8, !tbaa !53
  store ptr %40, ptr %6, align 8, !tbaa !42
  br label %12, !llvm.loop !113

41:                                               ; preds = %19
  store i1 true, ptr %3, align 1
  store i32 1, ptr %8, align 4
  br label %42

42:                                               ; preds = %41, %34
  call void @llvm.lifetime.end.p0(i64 8, ptr %6) #5
  %43 = load i1, ptr %3, align 1
  ret i1 %43
}

; Function Attrs: nounwind uwtable
define ptr @lv_draw_get_next_available_task(ptr noundef %0, ptr noundef %1, i8 noundef zeroext %2) #0 {
  %4 = alloca ptr, align 8
  %5 = alloca ptr, align 8
  %6 = alloca ptr, align 8
  %7 = alloca i8, align 1
  %8 = alloca ptr, align 8
  %9 = alloca i32, align 4
  %10 = alloca i32, align 4
  %11 = alloca ptr, align 8
  %12 = alloca i32, align 4
  %13 = alloca ptr, align 8
  store ptr %0, ptr %5, align 8, !tbaa !39
  store ptr %1, ptr %6, align 8, !tbaa !42
  store i8 %2, ptr %7, align 1, !tbaa !107
  %14 = load i32, ptr getelementptr inbounds nuw (%struct.lv_draw_global_info_t, ptr getelementptr inbounds nuw (%struct._lv_global_t, ptr @lv_global, i32 0, i32 31), i32 0, i32 1), align 8, !tbaa !37
  %15 = icmp ule i32 %14, 1
  br i1 %15, label %16, label %32

16:                                               ; preds = %3
  call void @llvm.lifetime.start.p0(i64 8, ptr %8) #5
  %17 = load ptr, ptr %5, align 8, !tbaa !39
  %18 = getelementptr inbounds nuw %struct._lv_layer_t, ptr %17, i32 0, i32 7
  %19 = load ptr, ptr %18, align 8, !tbaa !50
  store ptr %19, ptr %8, align 8, !tbaa !42
  br label %20

20:                                               ; preds = %16
  %21 = load ptr, ptr %8, align 8, !tbaa !42
  %22 = icmp ne ptr %21, null
  br i1 %22, label %23, label %30

23:                                               ; preds = %20
  %24 = load ptr, ptr %8, align 8, !tbaa !42
  %25 = getelementptr inbounds nuw %struct._lv_draw_task_t, ptr %24, i32 0, i32 8
  %26 = load volatile i32, ptr %25, align 8, !tbaa !49
  %27 = icmp ne i32 %26, 1
  br i1 %27, label %28, label %29

28:                                               ; preds = %23
  store ptr null, ptr %8, align 8, !tbaa !42
  br label %30

29:                                               ; preds = %23
  br label %30

30:                                               ; preds = %29, %28, %20
  %31 = load ptr, ptr %8, align 8, !tbaa !42
  store ptr %31, ptr %4, align 8
  call void @llvm.lifetime.end.p0(i64 8, ptr %8) #5
  br label %129

32:                                               ; preds = %3
  %33 = load ptr, ptr %5, align 8, !tbaa !39
  %34 = getelementptr inbounds nuw %struct._lv_layer_t, ptr %33, i32 0, i32 7
  %35 = load ptr, ptr %34, align 8, !tbaa !50
  %36 = icmp ne ptr %35, null
  br i1 %36, label %37, label %82

37:                                               ; preds = %32
  call void @llvm.lifetime.start.p0(i64 4, ptr %9) #5
  %38 = call ptr @lv_refr_get_disp_refreshing()
  %39 = call i32 @lv_display_get_horizontal_resolution(ptr noundef %38)
  store i32 %39, ptr %9, align 4, !tbaa !45
  call void @llvm.lifetime.start.p0(i64 4, ptr %10) #5
  %40 = call ptr @lv_refr_get_disp_refreshing()
  %41 = call i32 @lv_display_get_vertical_resolution(ptr noundef %40)
  store i32 %41, ptr %10, align 4, !tbaa !45
  call void @llvm.lifetime.start.p0(i64 8, ptr %11) #5
  %42 = load ptr, ptr %5, align 8, !tbaa !39
  %43 = getelementptr inbounds nuw %struct._lv_layer_t, ptr %42, i32 0, i32 7
  %44 = load ptr, ptr %43, align 8, !tbaa !50
  store ptr %44, ptr %11, align 8, !tbaa !42
  %45 = load ptr, ptr %11, align 8, !tbaa !42
  %46 = getelementptr inbounds nuw %struct._lv_draw_task_t, ptr %45, i32 0, i32 8
  %47 = load volatile i32, ptr %46, align 8, !tbaa !49
  %48 = icmp ne i32 %47, 1
  br i1 %48, label %49, label %78

49:                                               ; preds = %37
  %50 = load ptr, ptr %11, align 8, !tbaa !42
  %51 = getelementptr inbounds nuw %struct._lv_draw_task_t, ptr %50, i32 0, i32 2
  %52 = getelementptr inbounds nuw %struct.lv_area_t, ptr %51, i32 0, i32 0
  %53 = load i32, ptr %52, align 4, !tbaa !108
  %54 = icmp sle i32 %53, 0
  br i1 %54, label %55, label %78

55:                                               ; preds = %49
  %56 = load ptr, ptr %11, align 8, !tbaa !42
  %57 = getelementptr inbounds nuw %struct._lv_draw_task_t, ptr %56, i32 0, i32 2
  %58 = getelementptr inbounds nuw %struct.lv_area_t, ptr %57, i32 0, i32 2
  %59 = load i32, ptr %58, align 4, !tbaa !109
  %60 = load i32, ptr %9, align 4, !tbaa !45
  %61 = sub nsw i32 %60, 1
  %62 = icmp sge i32 %59, %61
  br i1 %62, label %63, label %78

63:                                               ; preds = %55
  %64 = load ptr, ptr %11, align 8, !tbaa !42
  %65 = getelementptr inbounds nuw %struct._lv_draw_task_t, ptr %64, i32 0, i32 2
  %66 = getelementptr inbounds nuw %struct.lv_area_t, ptr %65, i32 0, i32 1
  %67 = load i32, ptr %66, align 4, !tbaa !110
  %68 = icmp sle i32 %67, 0
  br i1 %68, label %69, label %78

69:                                               ; preds = %63
  %70 = load ptr, ptr %11, align 8, !tbaa !42
  %71 = getelementptr inbounds nuw %struct._lv_draw_task_t, ptr %70, i32 0, i32 2
  %72 = getelementptr inbounds nuw %struct.lv_area_t, ptr %71, i32 0, i32 3
  %73 = load i32, ptr %72, align 4, !tbaa !111
  %74 = load i32, ptr %10, align 4, !tbaa !45
  %75 = sub nsw i32 %74, 1
  %76 = icmp sge i32 %73, %75
  br i1 %76, label %77, label %78

77:                                               ; preds = %69
  store ptr null, ptr %4, align 8
  store i32 1, ptr %12, align 4
  br label %79

78:                                               ; preds = %69, %63, %55, %49, %37
  store i32 0, ptr %12, align 4
  br label %79

79:                                               ; preds = %78, %77
  call void @llvm.lifetime.end.p0(i64 8, ptr %11) #5
  call void @llvm.lifetime.end.p0(i64 4, ptr %10) #5
  call void @llvm.lifetime.end.p0(i64 4, ptr %9) #5
  %80 = load i32, ptr %12, align 4
  switch i32 %80, label %131 [
    i32 0, label %81
    i32 1, label %129
  ]

81:                                               ; preds = %79
  br label %82

82:                                               ; preds = %81, %32
  call void @llvm.lifetime.start.p0(i64 8, ptr %13) #5
  %83 = load ptr, ptr %6, align 8, !tbaa !42
  %84 = icmp ne ptr %83, null
  br i1 %84, label %85, label %89

85:                                               ; preds = %82
  %86 = load ptr, ptr %6, align 8, !tbaa !42
  %87 = getelementptr inbounds nuw %struct._lv_draw_task_t, ptr %86, i32 0, i32 0
  %88 = load ptr, ptr %87, align 8, !tbaa !53
  br label %93

89:                                               ; preds = %82
  %90 = load ptr, ptr %5, align 8, !tbaa !39
  %91 = getelementptr inbounds nuw %struct._lv_layer_t, ptr %90, i32 0, i32 7
  %92 = load ptr, ptr %91, align 8, !tbaa !50
  br label %93

93:                                               ; preds = %89, %85
  %94 = phi ptr [ %88, %85 ], [ %92, %89 ]
  store ptr %94, ptr %13, align 8, !tbaa !42
  br label %95

95:                                               ; preds = %123, %93
  %96 = load ptr, ptr %13, align 8, !tbaa !42
  %97 = icmp ne ptr %96, null
  br i1 %97, label %98, label %127

98:                                               ; preds = %95
  %99 = load ptr, ptr %13, align 8, !tbaa !42
  %100 = getelementptr inbounds nuw %struct._lv_draw_task_t, ptr %99, i32 0, i32 8
  %101 = load volatile i32, ptr %100, align 8, !tbaa !49
  %102 = icmp eq i32 %101, 1
  br i1 %102, label %103, label %123

103:                                              ; preds = %98
  %104 = load ptr, ptr %13, align 8, !tbaa !42
  %105 = getelementptr inbounds nuw %struct._lv_draw_task_t, ptr %104, i32 0, i32 10
  %106 = load i8, ptr %105, align 8, !tbaa !63
  %107 = zext i8 %106 to i32
  %108 = icmp eq i32 %107, 0
  br i1 %108, label %117, label %109

109:                                              ; preds = %103
  %110 = load ptr, ptr %13, align 8, !tbaa !42
  %111 = getelementptr inbounds nuw %struct._lv_draw_task_t, ptr %110, i32 0, i32 10
  %112 = load i8, ptr %111, align 8, !tbaa !63
  %113 = zext i8 %112 to i32
  %114 = load i8, ptr %7, align 1, !tbaa !107
  %115 = zext i8 %114 to i32
  %116 = icmp eq i32 %113, %115
  br i1 %116, label %117, label %123

117:                                              ; preds = %109, %103
  %118 = load ptr, ptr %5, align 8, !tbaa !39
  %119 = load ptr, ptr %13, align 8, !tbaa !42
  %120 = call zeroext i1 @is_independent(ptr noundef %118, ptr noundef %119)
  br i1 %120, label %121, label %123

121:                                              ; preds = %117
  %122 = load ptr, ptr %13, align 8, !tbaa !42
  store ptr %122, ptr %4, align 8
  store i32 1, ptr %12, align 4
  br label %128

123:                                              ; preds = %117, %109, %98
  %124 = load ptr, ptr %13, align 8, !tbaa !42
  %125 = getelementptr inbounds nuw %struct._lv_draw_task_t, ptr %124, i32 0, i32 0
  %126 = load ptr, ptr %125, align 8, !tbaa !53
  store ptr %126, ptr %13, align 8, !tbaa !42
  br label %95, !llvm.loop !112

127:                                              ; preds = %95
  store ptr null, ptr %4, align 8
  store i32 1, ptr %12, align 4
  br label %128

128:                                              ; preds = %127, %121
  call void @llvm.lifetime.end.p0(i64 8, ptr %13) #5
  br label %129

129:                                              ; preds = %128, %79, %30
  %130 = load ptr, ptr %4, align 8
  ret ptr %130

131:                                              ; preds = %79
  unreachable
}