; Function Attrs: nounwind uwtable
define ptr @lv_draw_get_next_available_task(ptr noundef readonly captures(none) %0, ptr noundef readonly captures(address_is_null) %1, i8 noundef zeroext %2) local_unnamed_addr #1 {
  %4 = alloca %struct.lv_area_t, align 4
  %5 = load i32, ptr getelementptr inbounds nuw (i8, ptr @lv_global, i64 544), align 8, !tbaa !35
  %6 = icmp ult i32 %5, 2
  %7 = getelementptr inbounds nuw i8, ptr %0, i64 72
  %8 = load ptr, ptr %7, align 8, !tbaa !45
  %.not37 = icmp eq ptr %8, null
  br i1 %6, label %9, label %13

9:                                                ; preds = %3
  br i1 %.not37, label %is_independent.exit.thread, label %10

10:                                               ; preds = %9
  %11 = getelementptr inbounds nuw i8, ptr %8, i64 96
  %12 = load volatile i32, ptr %11, align 8, !tbaa !44
  %.not38 = icmp eq i32 %12, 1
  %spec.select = select i1 %.not38, ptr %8, ptr null
  br label %is_independent.exit.thread

13:                                               ; preds = %3
  br i1 %.not37, label %.thread, label %14

14:                                               ; preds = %13
  %15 = tail call ptr @lv_refr_get_disp_refreshing() #11
  %16 = tail call i32 @lv_display_get_horizontal_resolution(ptr noundef %15) #11
  %17 = tail call ptr @lv_refr_get_disp_refreshing() #11
  %18 = tail call i32 @lv_display_get_vertical_resolution(ptr noundef %17) #11
  %19 = load ptr, ptr %7, align 8, !tbaa !45
  %20 = getelementptr inbounds nuw i8, ptr %19, i64 96
  %21 = load volatile i32, ptr %20, align 8, !tbaa !44
  %.not32 = icmp eq i32 %21, 1
  br i1 %.not32, label %.thread, label %22

22:                                               ; preds = %14
  %23 = getelementptr inbounds nuw i8, ptr %19, i64 12
  %24 = load i32, ptr %23, align 4, !tbaa !100
  %25 = icmp slt i32 %24, 1
  br i1 %25, label %26, label %.thread

26:                                               ; preds = %22
  %27 = getelementptr inbounds nuw i8, ptr %19, i64 20
  %28 = load i32, ptr %27, align 4, !tbaa !101
  %29 = add nsw i32 %16, -1
  %.not33 = icmp slt i32 %28, %29
  br i1 %.not33, label %.thread, label %30

30:                                               ; preds = %26
  %31 = getelementptr inbounds nuw i8, ptr %19, i64 16
  %32 = load i32, ptr %31, align 4, !tbaa !102
  %33 = icmp slt i32 %32, 1
  br i1 %33, label %34, label %.thread

34:                                               ; preds = %30
  %35 = getelementptr inbounds nuw i8, ptr %19, i64 24
  %36 = load i32, ptr %35, align 4, !tbaa !103
  %37 = add nsw i32 %18, -1
  %.not34 = icmp slt i32 %36, %37
  br i1 %.not34, label %.thread, label %is_independent.exit.thread

.thread:                                          ; preds = %34, %30, %26, %22, %14, %13
  %.not35 = icmp eq ptr %1, null
  %. = select i1 %.not35, ptr %7, ptr %1
  %.044 = load ptr, ptr %., align 8, !tbaa !95
  %.not3645 = icmp eq ptr %.044, null
  br i1 %.not3645, label %is_independent.exit.thread, label %.lr.ph

.lr.ph:                                           ; preds = %.thread, %is_independent.exit
  %.046 = phi ptr [ %.0, %is_independent.exit ], [ %.044, %.thread ]
  %38 = getelementptr inbounds nuw i8, ptr %.046, i64 96
  %39 = load volatile i32, ptr %38, align 8, !tbaa !44
  %40 = icmp eq i32 %39, 1
  br i1 %40, label %41, label %is_independent.exit

41:                                               ; preds = %.lr.ph
  %42 = getelementptr inbounds nuw i8, ptr %.046, i64 112
  %43 = load i8, ptr %42, align 8, !tbaa !58
  %44 = icmp eq i8 %43, 0
  %45 = icmp eq i8 %43, %2
  %or.cond = or i1 %44, %45
  br i1 %or.cond, label %46, label %is_independent.exit

46:                                               ; preds = %41
  %.0915.i = load ptr, ptr %7, align 8, !tbaa !95
  %47 = icmp eq ptr %.0915.i, null
  %48 = icmp eq ptr %.0915.i, %.046
  %.not1416.i = or i1 %47, %48
  br i1 %.not1416.i, label %is_independent.exit.thread, label %.lr.ph.i

.lr.ph.i:                                         ; preds = %46
  %49 = getelementptr inbounds nuw i8, ptr %.046, i64 28
  br label %50

50:                                               ; preds = %56, %.lr.ph.i
  %.0917.i = phi ptr [ %.0915.i, %.lr.ph.i ], [ %.09.i, %56 ]
  %51 = getelementptr inbounds nuw i8, ptr %.0917.i, i64 96
  %52 = load volatile i32, ptr %51, align 8, !tbaa !44
  %.not.i = icmp eq i32 %52, 3
  br i1 %.not.i, label %56, label %53

53:                                               ; preds = %50
  call void @llvm.lifetime.start.p0(i64 16, ptr nonnull %4) #11
  %54 = getelementptr inbounds nuw i8, ptr %.0917.i, i64 28
  %55 = call zeroext i1 @lv_area_intersect(ptr noundef nonnull %4, ptr noundef nonnull %54, ptr noundef nonnull %49) #11
  call void @llvm.lifetime.end.p0(i64 16, ptr nonnull %4) #11
  br i1 %55, label %is_independent.exit, label %56

56:                                               ; preds = %53, %50
  %.09.i = load ptr, ptr %.0917.i, align 8, !tbaa !95
  %57 = icmp eq ptr %.09.i, null
  %58 = icmp eq ptr %.09.i, %.046
  %.not14.i = or i1 %57, %58
  br i1 %.not14.i, label %is_independent.exit.thread, label %50, !llvm.loop !104

is_independent.exit:                              ; preds = %53, %41, %.lr.ph
  %.0 = load ptr, ptr %.046, align 8, !tbaa !95
  %.not36 = icmp eq ptr %.0, null
  br i1 %.not36, label %is_independent.exit.thread, label %.lr.ph, !llvm.loop !105

is_independent.exit.thread:                       ; preds = %is_independent.exit, %46, %56, %.thread, %34, %10, %9
  %.027 = phi ptr [ null, %9 ], [ %spec.select, %10 ], [ null, %34 ], [ null, %.thread ], [ %.046, %56 ], [ null, %is_independent.exit ], [ %.046, %46 ]
  ret ptr %.027
}